target datalayout = "e-m:e-p270:32:32-p271:32:32-p272:64:64-i64:64-f80:128-n8:16:32:64-S128"
target triple = "x86_64-pc-linux-gnu"

@.str = private unnamed_addr constant [3 x i8] c"%d\00", align 1
@.str.1 = private unnamed_addr constant [3 x i8] c"%s\00", align 1
@.str.2 = private unnamed_addr constant [4 x i8] c"NO\0A\00", align 1
@.str.3 = private unnamed_addr constant [4 x i8] c"%d\0A\00", align 1
@.str.4 = private unnamed_addr constant [4 x i8] c"%s\0A\00", align 1

; Function Attrs: noinline nounwind uwtable
define dso_local void @main() #0 {
  %1 = alloca i32, align 4
  %2 = alloca i32, align 4
  %3 = alloca [500 x i32], align 16
  %4 = alloca i32, align 4
  %5 = alloca i32, align 4
  %6 = alloca i32, align 4
  %7 = alloca i32, align 4
  %8 = alloca [500 x i8], align 16
  %9 = alloca [500 x [6 x i8]], align 16
  %10 = bitcast [500 x i32]* %3 to i8*
  call void @llvm.memset.p0i8.i64(i8* align 16 %10, i8 0, i64 2000, i1 false)
  %11 = call i32 (i8*, ...) @__isoc99_scanf(i8* getelementptr inbounds ([3 x i8], [3 x i8]* @.str, i64 0, i64 0), i32* %1)
  %12 = getelementptr inbounds [500 x i8], [500 x i8]* %8, i64 0, i64 0
  %13 = call i32 (i8*, ...) @__isoc99_scanf(i8* getelementptr inbounds ([3 x i8], [3 x i8]* @.str.1, i64 0, i64 0), i8* %12)
  %14 = getelementptr inbounds [500 x i8], [500 x i8]* %8, i64 0, i64 0
  %15 = call i64 @strlen(i8* %14) #4
  %16 = trunc i64 %15 to i32
  store i32 %16, i32* %2, align 4
  store i32 0, i32* %4, align 4
  br label %17

17:                                               ; preds = %52, %0
  %18 = load i32, i32* %4, align 4
  %19 = load i32, i32* %2, align 4
  %20 = load i32, i32* %1, align 4
  %21 = sub nsw i32 %19, %20
  %22 = add nsw i32 %21, 1
  %23 = icmp slt i32 %18, %22
  br i1 %23, label %24, label %55

24:                                               ; preds = %17
  store i32 0, i32* %5, align 4
  br label %25

25:                                               ; preds = %42, %24
  %26 = load i32, i32* %5, align 4
  %27 = load i32, i32* %1, align 4
  %28 = icmp slt i32 %26, %27
  br i1 %28, label %29, label %45

29:                                               ; preds = %25
  %30 = load i32, i32* %4, align 4
  %31 = load i32, i32* %5, align 4
  %32 = add nsw i32 %30, %31
  %33 = sext i32 %32 to i64
  %34 = getelementptr inbounds [500 x i8], [500 x i8]* %8, i64 0, i64 %33
  %35 = load i8, i8* %34, align 1
  %36 = load i32, i32* %4, align 4
  %37 = sext i32 %36 to i64
  %38 = getelementptr inbounds [500 x [6 x i8]], [500 x [6 x i8]]* %9, i64 0, i64 %37
  %39 = load i32, i32* %5, align 4
  %40 = sext i32 %39 to i64
  %41 = getelementptr inbounds [6 x i8], [6 x i8]* %38, i64 0, i64 %40
  store i8 %35, i8* %41, align 1
  br label %42

42:                                               ; preds = %29
  %43 = load i32, i32* %5, align 4
  %44 = add nsw i32 %43, 1
  store i32 %44, i32* %5, align 4
  br label %25

45:                                               ; preds = %25
  %46 = load i32, i32* %4, align 4
  %47 = sext i32 %46 to i64
  %48 = getelementptr inbounds [500 x [6 x i8]], [500 x [6 x i8]]* %9, i64 0, i64 %47
  %49 = load i32, i32* %5, align 4
  %50 = sext i32 %49 to i64
  %51 = getelementptr inbounds [6 x i8], [6 x i8]* %48, i64 0, i64 %50
  store i8 0, i8* %51, align 1
  br label %52

52:                                               ; preds = %45
  %53 = load i32, i32* %4, align 4
  %54 = add nsw i32 %53, 1
  store i32 %54, i32* %4, align 4
  br label %17

55:                                               ; preds = %17
  store i32 0, i32* %4, align 4
  br label %56

56:                                               ; preds = %106, %55
  %57 = load i32, i32* %4, align 4
  %58 = load i32, i32* %2, align 4
  %59 = load i32, i32* %1, align 4
  %60 = sub nsw i32 %58, %59
  %61 = icmp slt i32 %57, %60
  br i1 %61, label %62, label %109

62:                                               ; preds = %56
  %63 = load i32, i32* %4, align 4
  %64 = add nsw i32 %63, 1
  store i32 %64, i32* %5, align 4
  br label %65

65:                                               ; preds = %102, %62
  %66 = load i32, i32* %5, align 4
  %67 = load i32, i32* %2, align 4
  %68 = load i32, i32* %1, align 4
  %69 = sub nsw i32 %67, %68
  %70 = add nsw i32 %69, 1
  %71 = icmp slt i32 %66, %70
  br i1 %71, label %72, label %105

72:                                               ; preds = %65
  %73 = load i32, i32* %4, align 4
  %74 = sext i32 %73 to i64
  %75 = getelementptr inbounds [500 x [6 x i8]], [500 x [6 x i8]]* %9, i64 0, i64 %74
  %76 = getelementptr inbounds [6 x i8], [6 x i8]* %75, i64 0, i64 0
  %77 = load i32, i32* %5, align 4
  %78 = sext i32 %77 to i64
  %79 = getelementptr inbounds [500 x [6 x i8]], [500 x [6 x i8]]* %9, i64 0, i64 %78
  %80 = getelementptr inbounds [6 x i8], [6 x i8]* %79, i64 0, i64 0
  %81 = call i32 @strcmp(i8* %76, i8* %80) #4
  %82 = icmp eq i32 %81, 0
  br i1 %82, label %83, label %101

83:                                               ; preds = %72
  %84 = load i32, i32* %4, align 4
  %85 = sext i32 %84 to i64
  %86 = getelementptr inbounds [500 x [6 x i8]], [500 x [6 x i8]]* %9, i64 0, i64 %85
  %87 = getelementptr inbounds [6 x i8], [6 x i8]* %86, i64 0, i64 0
  %88 = load i8, i8* %87, align 2
  %89 = sext i8 %88 to i32
  %90 = icmp ne i32 %89, 0
  br i1 %90, label %91, label %101

91:                                               ; preds = %83
  %92 = load i32, i32* %4, align 4
  %93 = sext i32 %92 to i64
  %94 = getelementptr inbounds [500 x i32], [500 x i32]* %3, i64 0, i64 %93
  %95 = load i32, i32* %94, align 4
  %96 = add nsw i32 %95, 1
  store i32 %96, i32* %94, align 4
  %97 = load i32, i32* %5, align 4
  %98 = sext i32 %97 to i64
  %99 = getelementptr inbounds [500 x [6 x i8]], [500 x [6 x i8]]* %9, i64 0, i64 %98
  %100 = getelementptr inbounds [6 x i8], [6 x i8]* %99, i64 0, i64 0
  store i8 0, i8* %100, align 2
  br label %101

101:                                              ; preds = %91, %83, %72
  br label %102

102:                                              ; preds = %101
  %103 = load i32, i32* %5, align 4
  %104 = add nsw i32 %103, 1
  store i32 %104, i32* %5, align 4
  br label %65

105:                                              ; preds = %65
  br label %106

106:                                              ; preds = %105
  %107 = load i32, i32* %4, align 4
  %108 = add nsw i32 %107, 1
  store i32 %108, i32* %4, align 4
  br label %56

109:                                              ; preds = %56
  %110 = getelementptr inbounds [500 x i32], [500 x i32]* %3, i64 0, i64 0
  %111 = load i32, i32* %110, align 16
  store i32 %111, i32* %7, align 4
  store i32 1, i32* %4, align 4
  br label %112

112:                                              ; preds = %132, %109
  %113 = load i32, i32* %4, align 4
  %114 = load i32, i32* %2, align 4
  %115 = load i32, i32* %1, align 4
  %116 = sub nsw i32 %114, %115
  %117 = add nsw i32 %116, 1
  %118 = icmp slt i32 %113, %117
  br i1 %118, label %119, label %135

119:                                              ; preds = %112
  %120 = load i32, i32* %4, align 4
  %121 = sext i32 %120 to i64
  %122 = getelementptr inbounds [500 x i32], [500 x i32]* %3, i64 0, i64 %121
  %123 = load i32, i32* %122, align 4
  %124 = load i32, i32* %7, align 4
  %125 = icmp sgt i32 %123, %124
  br i1 %125, label %126, label %131

126:                                              ; preds = %119
  %127 = load i32, i32* %4, align 4
  %128 = sext i32 %127 to i64
  %129 = getelementptr inbounds [500 x i32], [500 x i32]* %3, i64 0, i64 %128
  %130 = load i32, i32* %129, align 4
  store i32 %130, i32* %7, align 4
  br label %131

131:                                              ; preds = %126, %119
  br label %132

132:                                              ; preds = %131
  %133 = load i32, i32* %4, align 4
  %134 = add nsw i32 %133, 1
  store i32 %134, i32* %4, align 4
  br label %112

135:                                              ; preds = %112
  %136 = load i32, i32* %7, align 4
  %137 = icmp eq i32 %136, 0
  br i1 %137, label %138, label %140

138:                                              ; preds = %135
  %139 = call i32 (i8*, ...) @printf(i8* getelementptr inbounds ([4 x i8], [4 x i8]* @.str.2, i64 0, i64 0))
  br label %169

140:                                              ; preds = %135
  %141 = load i32, i32* %7, align 4
  %142 = add nsw i32 %141, 1
  %143 = call i32 (i8*, ...) @printf(i8* getelementptr inbounds ([4 x i8], [4 x i8]* @.str.3, i64 0, i64 0), i32 %142)
  store i32 0, i32* %4, align 4
  br label %144

144:                                              ; preds = %165, %140
  %145 = load i32, i32* %4, align 4
  %146 = load i32, i32* %2, align 4
  %147 = load i32, i32* %1, align 4
  %148 = sub nsw i32 %146, %147
  %149 = add nsw i32 %148, 1
  %150 = icmp slt i32 %145, %149
  br i1 %150, label %151, label %168

151:                                              ; preds = %144
  %152 = load i32, i32* %4, align 4
  %153 = sext i32 %152 to i64
  %154 = getelementptr inbounds [500 x i32], [500 x i32]* %3, i64 0, i64 %153
  %155 = load i32, i32* %154, align 4
  %156 = load i32, i32* %7, align 4
  %157 = icmp eq i32 %155, %156
  br i1 %157, label %158, label %164

158:                                              ; preds = %151
  %159 = load i32, i32* %4, align 4
  %160 = sext i32 %159 to i64
  %161 = getelementptr inbounds [500 x [6 x i8]], [500 x [6 x i8]]* %9, i64 0, i64 %160
  %162 = getelementptr inbounds [6 x i8], [6 x i8]* %161, i64 0, i64 0
  %163 = call i32 (i8*, ...) @printf(i8* getelementptr inbounds ([4 x i8], [4 x i8]* @.str.4, i64 0, i64 0), i8* %162)
  br label %164

164:                                              ; preds = %158, %151
  br label %165

165:                                              ; preds = %164
  %166 = load i32, i32* %4, align 4
  %167 = add nsw i32 %166, 1
  store i32 %167, i32* %4, align 4
  br label %144

168:                                              ; preds = %144
  br label %169

169:                                              ; preds = %168, %138
  ret void
}